; Function Attrs: mustprogress noreturn uwtable
define internal void @"_ZNSt17_Function_handlerIFvRKN32pxrInternal_v0_24__pxrReserved__9UsdNotice14ObjectsChangedEEZ4mainE3$_0E9_M_invokeERKSt9_Any_dataS4_"(ptr nocapture nonnull readnone align 8 %0, ptr nocapture nonnull readnone align 8 %1) #14 align 2 {
  %3 = alloca %"struct.pxrInternal_v0_24__pxrReserved__::Tf_DiagnosticLiteHelper", align 8
  call void @llvm.lifetime.start.p0(i64 48, ptr nonnull %3)
  store ptr @.str, ptr %3, align 8
  %.sroa.2.0..sroa_idx.i.i.i = getelementptr inbounds i8, ptr %3, i64 8
  store ptr @"__func__._ZZ4mainENK3$_0clERKN32pxrInternal_v0_24__pxrReserved__9UsdNotice14ObjectsChangedE", ptr %.sroa.2.0..sroa_idx.i.i.i, align 8
  %.sroa.3.0..sroa_idx.i.i.i = getelementptr inbounds i8, ptr %3, i64 16
  store i64 148, ptr %.sroa.3.0..sroa_idx.i.i.i, align 8
  %.sroa.4.0..sroa_idx.i.i.i = getelementptr inbounds i8, ptr %3, i64 24
  store ptr @"__PRETTY_FUNCTION__._ZZ4mainENK3$_0clERKN32pxrInternal_v0_24__pxrReserved__9UsdNotice14ObjectsChangedE", ptr %.sroa.4.0..sroa_idx.i.i.i, align 8
  %.sroa.5.0..sroa_idx.i.i.i = getelementptr inbounds i8, ptr %3, i64 32
  store i8 0, ptr %.sroa.5.0..sroa_idx.i.i.i, align 8
  %4 = getelementptr inbounds nuw i8, ptr %3, i64 40
  store i32 4, ptr %4, align 8
  call void (ptr, ptr, ...) @_ZNK32pxrInternal_v0_24__pxrReserved__23Tf_DiagnosticLiteHelper15IssueFatalErrorEPKcz(ptr noundef nonnull align 8 dereferenceable(44) %3, ptr noundef nonnull @.str.43, ptr noundef nonnull @.str.57) #21
  unreachable
}